target datalayout = "e-m:e-p270:32:32-p271:32:32-p272:64:64-i64:64-i128:128-f80:128-n8:16:32:64-S128"
target triple = "x86_64-pc-linux-gnu"

%struct._GtkTreeIter = type { i32, ptr, ptr, ptr }
%struct.dt_iop_lut3d_gui_data_t = type { ptr, ptr, ptr, ptr, ptr, ptr, ptr, i64 }

; Function Attrs: nounwind uwtable
define hidden void @lut3d_add_lutname_to_list(ptr noundef %0, ptr noundef %1) #0 {
  %3 = alloca ptr, align 8
  %4 = alloca ptr, align 8
  %5 = alloca ptr, align 8
  %6 = alloca ptr, align 8
  %7 = alloca ptr, align 8
  %8 = alloca %struct._GtkTreeIter, align 8
  store ptr %0, ptr %3, align 8, !tbaa !15
  store ptr %1, ptr %4, align 8, !tbaa !41
  call void @llvm.lifetime.start.p0(i64 8, ptr %5) #13
  %9 = load ptr, ptr %3, align 8, !tbaa !15
  store ptr %9, ptr %5, align 8, !tbaa !166
  call void @llvm.lifetime.start.p0(i64 8, ptr %6) #13
  %10 = load ptr, ptr %5, align 8, !tbaa !166
  %11 = getelementptr inbounds nuw %struct.dt_iop_lut3d_gui_data_t, ptr %10, i32 0, i32 5
  %12 = load ptr, ptr %11, align 8, !tbaa !168
  %13 = call ptr @gtk_tree_view_get_model(ptr noundef %12)
  store ptr %13, ptr %6, align 8, !tbaa !170
  call void @llvm.lifetime.start.p0(i64 8, ptr %7) #13
  %14 = load ptr, ptr %6, align 8, !tbaa !170
  %15 = call i64 @gtk_tree_model_filter_get_type() #16
  %16 = call ptr @g_type_check_instance_cast(ptr noundef %14, i64 noundef %15)
  %17 = call ptr @gtk_tree_model_filter_get_model(ptr noundef %16)
  store ptr %17, ptr %7, align 8, !tbaa !170
  call void @llvm.lifetime.start.p0(i64 32, ptr %8) #13
  %18 = load ptr, ptr %7, align 8, !tbaa !170
  call void @gtk_list_store_append(ptr noundef %18, ptr noundef %8)
  %19 = load ptr, ptr %7, align 8, !tbaa !170
  %20 = load ptr, ptr %4, align 8, !tbaa !41
  call void (ptr, ptr, ...) @gtk_list_store_set(ptr noundef %19, ptr noundef %8, i32 noundef 0, ptr noundef %20, i32 noundef 1, i32 noundef 1, i32 noundef -1)
  call void @llvm.lifetime.end.p0(i64 32, ptr %8) #13
  call void @llvm.lifetime.end.p0(i64 8, ptr %7) #13
  call void @llvm.lifetime.end.p0(i64 8, ptr %6) #13
  call void @llvm.lifetime.end.p0(i64 8, ptr %5) #13
  ret void
}