; Function Attrs: nounwind uwtable
define hidden void @lut3d_add_lutname_to_list(ptr noundef readonly captures(none) %0, ptr noundef %1) local_unnamed_addr #1 {
  %3 = alloca %struct._GtkTreeIter, align 8
  %4 = getelementptr inbounds nuw i8, ptr %0, i64 40
  %5 = load ptr, ptr %4, align 8, !tbaa !133
  %6 = tail call ptr @gtk_tree_view_get_model(ptr noundef %5) #25
  %7 = tail call i64 @gtk_tree_model_filter_get_type() #28
  %8 = tail call ptr @g_type_check_instance_cast(ptr noundef %6, i64 noundef %7) #25
  %9 = tail call ptr @gtk_tree_model_filter_get_model(ptr noundef %8) #25
  call void @llvm.lifetime.start.p0(i64 32, ptr nonnull %3) #25
  call void @gtk_list_store_append(ptr noundef %9, ptr noundef nonnull %3) #25
  call void (ptr, ptr, ...) @gtk_list_store_set(ptr noundef %9, ptr noundef nonnull %3, i32 noundef 0, ptr noundef %1, i32 noundef 1, i32 noundef 1, i32 noundef -1) #25
  call void @llvm.lifetime.end.p0(i64 32, ptr nonnull %3) #25
  ret void
}